target datalayout = "e-m:e-p270:32:32-p271:32:32-p272:64:64-i64:64-i128:128-f80:128-n8:16:32:64-S128"
target triple = "x86_64-pc-linux-gnu"

%struct.pg_md5_ctx = type { %union.anon, %union.anon.0, i32, [64 x i8] }
%union.anon = type { [4 x i32] }
%union.anon.0 = type { i64 }

; Function Attrs: nounwind uwtable
define void @pg_md5_init(ptr noundef %0) #0 {
  %2 = alloca ptr, align 8
  store ptr %0, ptr %2, align 8
  %3 = load ptr, ptr %2, align 8
  %4 = getelementptr inbounds nuw %struct.pg_md5_ctx, ptr %3, i32 0, i32 1
  store i64 0, ptr %4, align 8
  %5 = load ptr, ptr %2, align 8
  %6 = getelementptr inbounds nuw %struct.pg_md5_ctx, ptr %5, i32 0, i32 2
  store i32 0, ptr %6, align 8
  %7 = load ptr, ptr %2, align 8
  %8 = getelementptr inbounds nuw %struct.pg_md5_ctx, ptr %7, i32 0, i32 0
  %9 = getelementptr inbounds [4 x i32], ptr %8, i64 0, i64 0
  store i32 1732584193, ptr %9, align 8
  %10 = load ptr, ptr %2, align 8
  %11 = getelementptr inbounds nuw %struct.pg_md5_ctx, ptr %10, i32 0, i32 0
  %12 = getelementptr inbounds [4 x i32], ptr %11, i64 0, i64 1
  store i32 -271733879, ptr %12, align 4
  %13 = load ptr, ptr %2, align 8
  %14 = getelementptr inbounds nuw %struct.pg_md5_ctx, ptr %13, i32 0, i32 0
  %15 = getelementptr inbounds [4 x i32], ptr %14, i64 0, i64 2
  store i32 -1732584194, ptr %15, align 8
  %16 = load ptr, ptr %2, align 8
  %17 = getelementptr inbounds nuw %struct.pg_md5_ctx, ptr %16, i32 0, i32 0
  %18 = getelementptr inbounds [4 x i32], ptr %17, i64 0, i64 3
  store i32 271733878, ptr %18, align 4
  %19 = load ptr, ptr %2, align 8
  %20 = getelementptr inbounds nuw %struct.pg_md5_ctx, ptr %19, i32 0, i32 3
  %21 = getelementptr inbounds [64 x i8], ptr %20, i64 0, i64 0
  call void @llvm.memset.p0.i64(ptr align 4 %21, i8 0, i64 64, i1 false)
  ret void
}