; Function Attrs: mustprogress nofree norecurse nosync nounwind willreturn memory(argmem: write) uwtable
define void @pg_md5_init(ptr noundef writeonly captures(none) initializes((0, 92)) %0) local_unnamed_addr #0 {
  %2 = getelementptr inbounds nuw i8, ptr %0, i64 16
  store i64 0, ptr %2, align 8
  %3 = getelementptr inbounds nuw i8, ptr %0, i64 24
  store i32 0, ptr %3, align 8
  store i32 1732584193, ptr %0, align 8
  %4 = getelementptr inbounds nuw i8, ptr %0, i64 4
  store i32 -271733879, ptr %4, align 4
  %5 = getelementptr inbounds nuw i8, ptr %0, i64 8
  store i32 -1732584194, ptr %5, align 8
  %6 = getelementptr inbounds nuw i8, ptr %0, i64 12
  store i32 271733878, ptr %6, align 4
  %7 = getelementptr inbounds nuw i8, ptr %0, i64 28
  tail call void @llvm.memset.p0.i64(ptr noundef nonnull align 4 dereferenceable(64) %7, i8 0, i64 64, i1 false)
  ret void
}